target datalayout = "e-m:e-p270:32:32-p271:32:32-p272:64:64-i64:64-f80:128-n8:16:32:64-S128"
target triple = "x86_64-pc-linux-gnu"

; Function Attrs: noinline nounwind uwtable
define dso_local i32 @main() #0 {
  %1 = alloca i32, align 4
  %2 = alloca [256 x i8], align 16
  %3 = alloca [101 x i8], align 16
  %4 = alloca [101 x i8], align 16
  %5 = alloca i32, align 4
  %6 = alloca i32, align 4
  %7 = alloca i32, align 4
  %8 = alloca i32, align 4
  %9 = alloca i32, align 4
  %10 = alloca i32, align 4
  %11 = alloca i32, align 4
  %12 = alloca i32, align 4
  %13 = alloca i32, align 4
  store i32 0, i32* %1, align 4
  store i32 0, i32* %13, align 4
  %14 = getelementptr inbounds [256 x i8], [256 x i8]* %2, i64 0, i64 0
  %15 = call i32 (i8*, ...) bitcast (i32 (...)* @gets to i32 (i8*, ...)*)(i8* %14)
  %16 = getelementptr inbounds [101 x i8], [101 x i8]* %3, i64 0, i64 0
  %17 = call i32 (i8*, ...) bitcast (i32 (...)* @gets to i32 (i8*, ...)*)(i8* %16)
  %18 = getelementptr inbounds [101 x i8], [101 x i8]* %4, i64 0, i64 0
  %19 = call i32 (i8*, ...) bitcast (i32 (...)* @gets to i32 (i8*, ...)*)(i8* %18)
  %20 = getelementptr inbounds [256 x i8], [256 x i8]* %2, i64 0, i64 0
  %21 = call i64 @strlen(i8* %20) #3
  %22 = trunc i64 %21 to i32
  store i32 %22, i32* %6, align 4
  %23 = getelementptr inbounds [101 x i8], [101 x i8]* %3, i64 0, i64 0
  %24 = call i64 @strlen(i8* %23) #3
  %25 = trunc i64 %24 to i32
  store i32 %25, i32* %9, align 4
  %26 = getelementptr inbounds [101 x i8], [101 x i8]* %4, i64 0, i64 0
  %27 = call i64 @strlen(i8* %26) #3
  %28 = trunc i64 %27 to i32
  store i32 %28, i32* %10, align 4
  store i32 0, i32* %5, align 4
  br label %29

29:                                               ; preds = %211, %0
  %30 = load i32, i32* %5, align 4
  %31 = sext i32 %30 to i64
  %32 = getelementptr inbounds [256 x i8], [256 x i8]* %2, i64 0, i64 %31
  %33 = load i8, i8* %32, align 1
  %34 = sext i8 %33 to i32
  %35 = icmp ne i32 %34, 0
  br i1 %35, label %36, label %214

36:                                               ; preds = %29
  %37 = load i32, i32* %5, align 4
  %38 = sext i32 %37 to i64
  %39 = getelementptr inbounds [256 x i8], [256 x i8]* %2, i64 0, i64 %38
  %40 = load i8, i8* %39, align 1
  %41 = sext i8 %40 to i32
  %42 = getelementptr inbounds [101 x i8], [101 x i8]* %3, i64 0, i64 0
  %43 = load i8, i8* %42, align 16
  %44 = sext i8 %43 to i32
  %45 = icmp eq i32 %41, %44
  br i1 %45, label %46, label %210

46:                                               ; preds = %36
  %47 = load i32, i32* %13, align 4
  %48 = icmp eq i32 %47, 0
  br i1 %48, label %49, label %210

49:                                               ; preds = %46
  store i32 0, i32* %7, align 4
  br label %50

50:                                               ; preds = %70, %49
  %51 = load i32, i32* %5, align 4
  %52 = load i32, i32* %7, align 4
  %53 = add nsw i32 %51, %52
  %54 = sext i32 %53 to i64
  %55 = getelementptr inbounds [256 x i8], [256 x i8]* %2, i64 0, i64 %54
  %56 = load i8, i8* %55, align 1
  %57 = sext i8 %56 to i32
  %58 = load i32, i32* %7, align 4
  %59 = sext i32 %58 to i64
  %60 = getelementptr inbounds [101 x i8], [101 x i8]* %3, i64 0, i64 %59
  %61 = load i8, i8* %60, align 1
  %62 = sext i8 %61 to i32
  %63 = icmp eq i32 %57, %62
  br i1 %63, label %64, label %68

64:                                               ; preds = %50
  %65 = load i32, i32* %7, align 4
  %66 = load i32, i32* %9, align 4
  %67 = icmp slt i32 %65, %66
  br label %68

68:                                               ; preds = %64, %50
  %69 = phi i1 [ false, %50 ], [ %67, %64 ]
  br i1 %69, label %70, label %73

70:                                               ; preds = %68
  %71 = load i32, i32* %7, align 4
  %72 = add nsw i32 %71, 1
  store i32 %72, i32* %7, align 4
  br label %50

73:                                               ; preds = %68
  %74 = load i32, i32* %7, align 4
  %75 = load i32, i32* %9, align 4
  %76 = icmp eq i32 %74, %75
  br i1 %76, label %77, label %209

77:                                               ; preds = %73
  store i32 1, i32* %13, align 4
  %78 = getelementptr inbounds [256 x i8], [256 x i8]* %2, i64 0, i64 0
  %79 = call i64 @strlen(i8* %78) #3
  %80 = trunc i64 %79 to i32
  store i32 %80, i32* %6, align 4
  %81 = getelementptr inbounds [101 x i8], [101 x i8]* %3, i64 0, i64 0
  %82 = call i64 @strlen(i8* %81) #3
  %83 = trunc i64 %82 to i32
  store i32 %83, i32* %9, align 4
  %84 = getelementptr inbounds [101 x i8], [101 x i8]* %4, i64 0, i64 0
  %85 = call i64 @strlen(i8* %84) #3
  %86 = trunc i64 %85 to i32
  store i32 %86, i32* %10, align 4
  %87 = load i32, i32* %9, align 4
  %88 = load i32, i32* %10, align 4
  %89 = icmp eq i32 %87, %88
  br i1 %89, label %90, label %109

90:                                               ; preds = %77
  store i32 0, i32* %8, align 4
  br label %91

91:                                               ; preds = %105, %90
  %92 = load i32, i32* %8, align 4
  %93 = load i32, i32* %7, align 4
  %94 = icmp slt i32 %92, %93
  br i1 %94, label %95, label %108

95:                                               ; preds = %91
  %96 = load i32, i32* %8, align 4
  %97 = sext i32 %96 to i64
  %98 = getelementptr inbounds [101 x i8], [101 x i8]* %4, i64 0, i64 %97
  %99 = load i8, i8* %98, align 1
  %100 = load i32, i32* %5, align 4
  %101 = load i32, i32* %8, align 4
  %102 = add nsw i32 %100, %101
  %103 = sext i32 %102 to i64
  %104 = getelementptr inbounds [256 x i8], [256 x i8]* %2, i64 0, i64 %103
  store i8 %99, i8* %104, align 1
  br label %105

105:                                              ; preds = %95
  %106 = load i32, i32* %8, align 4
  %107 = add nsw i32 %106, 1
  store i32 %107, i32* %8, align 4
  br label %91

108:                                              ; preds = %91
  br label %109

109:                                              ; preds = %108, %77
  %110 = load i32, i32* %9, align 4
  %111 = load i32, i32* %10, align 4
  %112 = icmp sgt i32 %110, %111
  br i1 %112, label %113, label %158

113:                                              ; preds = %109
  store i32 0, i32* %8, align 4
  br label %114

114:                                              ; preds = %128, %113
  %115 = load i32, i32* %8, align 4
  %116 = load i32, i32* %9, align 4
  %117 = icmp slt i32 %115, %116
  br i1 %117, label %118, label %131

118:                                              ; preds = %114
  %119 = load i32, i32* %8, align 4
  %120 = sext i32 %119 to i64
  %121 = getelementptr inbounds [101 x i8], [101 x i8]* %4, i64 0, i64 %120
  %122 = load i8, i8* %121, align 1
  %123 = load i32, i32* %5, align 4
  %124 = load i32, i32* %8, align 4
  %125 = add nsw i32 %123, %124
  %126 = sext i32 %125 to i64
  %127 = getelementptr inbounds [256 x i8], [256 x i8]* %2, i64 0, i64 %126
  store i8 %122, i8* %127, align 1
  br label %128

128:                                              ; preds = %118
  %129 = load i32, i32* %8, align 4
  %130 = add nsw i32 %129, 1
  store i32 %130, i32* %8, align 4
  br label %114

131:                                              ; preds = %114
  %132 = load i32, i32* %10, align 4
  store i32 %132, i32* %8, align 4
  %133 = load i32, i32* %7, align 4
  store i32 %133, i32* %11, align 4
  br label %134

134:                                              ; preds = %152, %131
  %135 = load i32, i32* %11, align 4
  %136 = load i32, i32* %5, align 4
  %137 = add nsw i32 %135, %136
  %138 = load i32, i32* %6, align 4
  %139 = icmp sle i32 %137, %138
  br i1 %139, label %140, label %157

140:                                              ; preds = %134
  %141 = load i32, i32* %5, align 4
  %142 = load i32, i32* %11, align 4
  %143 = add nsw i32 %141, %142
  %144 = sext i32 %143 to i64
  %145 = getelementptr inbounds [256 x i8], [256 x i8]* %2, i64 0, i64 %144
  %146 = load i8, i8* %145, align 1
  %147 = load i32, i32* %5, align 4
  %148 = load i32, i32* %8, align 4
  %149 = add nsw i32 %147, %148
  %150 = sext i32 %149 to i64
  %151 = getelementptr inbounds [256 x i8], [256 x i8]* %2, i64 0, i64 %150
  store i8 %146, i8* %151, align 1
  br label %152

152:                                              ; preds = %140
  %153 = load i32, i32* %8, align 4
  %154 = add nsw i32 %153, 1
  store i32 %154, i32* %8, align 4
  %155 = load i32, i32* %11, align 4
  %156 = add nsw i32 %155, 1
  store i32 %156, i32* %11, align 4
  br label %134

157:                                              ; preds = %134
  br label %158

158:                                              ; preds = %157, %109
  %159 = load i32, i32* %9, align 4
  %160 = load i32, i32* %10, align 4
  %161 = icmp slt i32 %159, %160
  br i1 %161, label %162, label %208

162:                                              ; preds = %158
  %163 = getelementptr inbounds [256 x i8], [256 x i8]* %2, i64 0, i64 0
  %164 = call i64 @strlen(i8* %163) #3
  %165 = trunc i64 %164 to i32
  store i32 %165, i32* %6, align 4
  %166 = load i32, i32* %10, align 4
  %167 = load i32, i32* %9, align 4
  %168 = sub nsw i32 %166, %167
  store i32 %168, i32* %12, align 4
  %169 = load i32, i32* %6, align 4
  store i32 %169, i32* %11, align 4
  br label %170

170:                                              ; preds = %186, %162
  %171 = load i32, i32* %11, align 4
  %172 = load i32, i32* %5, align 4
  %173 = load i32, i32* %7, align 4
  %174 = add nsw i32 %172, %173
  %175 = icmp sge i32 %171, %174
  br i1 %175, label %176, label %189

176:                                              ; preds = %170
  %177 = load i32, i32* %11, align 4
  %178 = sext i32 %177 to i64
  %179 = getelementptr inbounds [256 x i8], [256 x i8]* %2, i64 0, i64 %178
  %180 = load i8, i8* %179, align 1
  %181 = load i32, i32* %11, align 4
  %182 = load i32, i32* %12, align 4
  %183 = add nsw i32 %181, %182
  %184 = sext i32 %183 to i64
  %185 = getelementptr inbounds [256 x i8], [256 x i8]* %2, i64 0, i64 %184
  store i8 %180, i8* %185, align 1
  br label %186

186:                                              ; preds = %176
  %187 = load i32, i32* %11, align 4
  %188 = add nsw i32 %187, -1
  store i32 %188, i32* %11, align 4
  br label %170

189:                                              ; preds = %170
  store i32 0, i32* %8, align 4
  br label %190

190:                                              ; preds = %204, %189
  %191 = load i32, i32* %8, align 4
  %192 = load i32, i32* %10, align 4
  %193 = icmp slt i32 %191, %192
  br i1 %193, label %194, label %207

194:                                              ; preds = %190
  %195 = load i32, i32* %8, align 4
  %196 = sext i32 %195 to i64
  %197 = getelementptr inbounds [101 x i8], [101 x i8]* %4, i64 0, i64 %196
  %198 = load i8, i8* %197, align 1
  %199 = load i32, i32* %5, align 4
  %200 = load i32, i32* %8, align 4
  %201 = add nsw i32 %199, %200
  %202 = sext i32 %201 to i64
  %203 = getelementptr inbounds [256 x i8], [256 x i8]* %2, i64 0, i64 %202
  store i8 %198, i8* %203, align 1
  br label %204

204:                                              ; preds = %194
  %205 = load i32, i32* %8, align 4
  %206 = add nsw i32 %205, 1
  store i32 %206, i32* %8, align 4
  br label %190

207:                                              ; preds = %190
  br label %208

208:                                              ; preds = %207, %158
  br label %209

209:                                              ; preds = %208, %73
  br label %210

210:                                              ; preds = %209, %46, %36
  br label %211

211:                                              ; preds = %210
  %212 = load i32, i32* %5, align 4
  %213 = add nsw i32 %212, 1
  store i32 %213, i32* %5, align 4
  br label %29

214:                                              ; preds = %29
  %215 = getelementptr inbounds [256 x i8], [256 x i8]* %2, i64 0, i64 0
  %216 = call i32 @puts(i8* %215)
  ret i32 0
}